target datalayout = "e-m:e-p270:32:32-p271:32:32-p272:64:64-i64:64-i128:128-f80:128-n8:16:32:64-S128"
target triple = "x86_64-pc-linux-gnu"

%"class.tbb::detail::d1::task_group_context" = type { i64, %"struct.std::atomic.4", i8, %"struct.tbb::detail::d1::task_group_context::context_traits", %"struct.std::atomic.6", %"struct.std::atomic.8", %union.anon, ptr, %"struct.tbb::detail::d1::intrusive_list_node", %"struct.std::atomic.9", ptr, i64, [56 x i8] }
%"struct.std::atomic.4" = type { %"struct.std::__atomic_base.5" }
%"struct.std::__atomic_base.5" = type { i32 }
%"struct.tbb::detail::d1::task_group_context::context_traits" = type { i8 }
%"struct.std::atomic.6" = type { %"struct.std::__atomic_base.7" }
%"struct.std::__atomic_base.7" = type { i8 }
%"struct.std::atomic.8" = type { i8 }
%union.anon = type { ptr }
%"struct.tbb::detail::d1::intrusive_list_node" = type { ptr, ptr }
%"struct.std::atomic.9" = type { %"struct.std::__atomic_base.10" }
%"struct.std::__atomic_base.10" = type { ptr }
%"struct.tbb::detail::d1::cpu_ctl_env" = type <{ i32, i16, [2 x i8] }>

; Function Attrs: mustprogress nounwind sspstrong uwtable
define linkonce_odr void @_ZN3tbb6detail2d111cpu_ctl_env7get_envEv(ptr noundef nonnull align 4 dereferenceable(6) %0) #1 comdat align 2 {
  %2 = alloca ptr, align 8
  store ptr %0, ptr %2, align 8, !tbaa !36
  %3 = load ptr, ptr %2, align 8
  %4 = getelementptr inbounds nuw %"struct.tbb::detail::d1::cpu_ctl_env", ptr %3, i32 0, i32 0
  %5 = getelementptr inbounds nuw %"struct.tbb::detail::d1::cpu_ctl_env", ptr %3, i32 0, i32 1
  call void asm sideeffect "stmxcsr $0\0A\09fstcw $1", "=*m,=*m,~{dirflag},~{fpsr},~{flags}"(ptr elementtype(i32) %4, ptr elementtype(i16) %5) #12, !srcloc !81
  %6 = getelementptr inbounds nuw %"struct.tbb::detail::d1::cpu_ctl_env", ptr %3, i32 0, i32 0
  %7 = load i32, ptr %6, align 4, !tbaa !77
  %8 = and i32 %7, -64
  store i32 %8, ptr %6, align 4, !tbaa !77
  ret void
}

; Function Attrs: inlinehint mustprogress nounwind sspstrong uwtable
define linkonce_odr void @_ZN3tbb6detail2d111cpu_ctl_envC2Ev(ptr noundef nonnull align 4 dereferenceable(6) %0) unnamed_addr #5 comdat align 2 {
  %2 = alloca ptr, align 8
  store ptr %0, ptr %2, align 8, !tbaa !36
  %3 = load ptr, ptr %2, align 8
  %4 = getelementptr inbounds nuw %"struct.tbb::detail::d1::cpu_ctl_env", ptr %3, i32 0, i32 0
  store i32 0, ptr %4, align 4, !tbaa !77
  %5 = getelementptr inbounds nuw %"struct.tbb::detail::d1::cpu_ctl_env", ptr %3, i32 0, i32 1
  store i16 0, ptr %5, align 4, !tbaa !80
  ret void
}

; Function Attrs: mustprogress sspstrong uwtable
define void @_ZN3tbb6detail2r123task_group_context_impl19capture_fp_settingsERNS0_2d118task_group_contextE(ptr noundef nonnull align 8 dereferenceable(128) %0) #6 align 2 {
  %2 = alloca ptr, align 8
  %3 = alloca ptr, align 8
  store ptr %0, ptr %2, align 8, !tbaa !16
  call void @llvm.lifetime.start.p0(i64 8, ptr %3) #12
  %4 = load ptr, ptr %2, align 8, !tbaa !16
  %5 = getelementptr inbounds nuw %"class.tbb::detail::d1::task_group_context", ptr %4, i32 0, i32 0
  store ptr %5, ptr %3, align 8, !tbaa !36
  %6 = load ptr, ptr %2, align 8, !tbaa !16
  %7 = getelementptr inbounds nuw %"class.tbb::detail::d1::task_group_context", ptr %6, i32 0, i32 3
  %8 = load i8, ptr %7, align 1
  %9 = and i8 %8, 1
  %10 = trunc i8 %9 to i1
  br i1 %10, label %19, label %11

11:                                               ; preds = %1
  %12 = load ptr, ptr %2, align 8, !tbaa !16
  %13 = getelementptr inbounds nuw %"class.tbb::detail::d1::task_group_context", ptr %12, i32 0, i32 0
  call void @_ZN3tbb6detail2d111cpu_ctl_envC2Ev(ptr noundef nonnull align 4 dereferenceable(6) %13) #12
  store ptr %13, ptr %3, align 8, !tbaa !36
  %14 = load ptr, ptr %2, align 8, !tbaa !16
  %15 = getelementptr inbounds nuw %"class.tbb::detail::d1::task_group_context", ptr %14, i32 0, i32 3
  %16 = load i8, ptr %15, align 1
  %17 = and i8 %16, -2
  %18 = or i8 %17, 1
  store i8 %18, ptr %15, align 1
  br label %19

19:                                               ; preds = %11, %1
  %20 = load ptr, ptr %3, align 8, !tbaa !36
  call void @_ZN3tbb6detail2d111cpu_ctl_env7get_envEv(ptr noundef nonnull align 4 dereferenceable(6) %20)
  call void @llvm.lifetime.end.p0(i64 8, ptr %3) #12
  ret void
}

; Function Attrs: mustprogress sspstrong uwtable
define void @_ZN3tbb6detail2r119capture_fp_settingsERNS0_2d118task_group_contextE(ptr noundef nonnull align 8 dereferenceable(128) %0) #6 {
  %2 = alloca ptr, align 8
  store ptr %0, ptr %2, align 8, !tbaa !16
  %3 = load ptr, ptr %2, align 8, !tbaa !16
  call void @_ZN3tbb6detail2r123task_group_context_impl19capture_fp_settingsERNS0_2d118task_group_contextE(ptr noundef nonnull align 8 dereferenceable(128) %3)
  ret void
}